target datalayout = "e-m:e-p270:32:32-p271:32:32-p272:64:64-i64:64-i128:128-f80:128-n8:16:32:64-S128"
target triple = "x86_64-pc-linux-gnu"

%"class.std::__shared_ptr" = type { ptr, %"class.std::__shared_count" }
%"class.std::__shared_count" = type { ptr }
%"class.std::shared_ptr" = type { %"class.std::__shared_ptr" }
%"class.rocksdb::blob_db::BlobIndexCompactionFilterBase" = type { %"class.rocksdb::LayeredCompactionFilterBase", %"struct.rocksdb::blob_db::BlobCompactionContext", i64, ptr, %"class.std::shared_ptr", %"class.std::shared_ptr.15", i64, i64, i64, i64 }
%"class.rocksdb::LayeredCompactionFilterBase" = type { %"class.rocksdb::CompactionFilter", ptr, %"class.std::unique_ptr" }
%"class.rocksdb::CompactionFilter" = type { %"class.rocksdb::Customizable" }
%"class.rocksdb::Customizable" = type { %"class.rocksdb::Configurable" }
%"class.rocksdb::Configurable" = type { ptr, %"class.std::vector.3" }
%"class.std::vector.3" = type { %"struct.std::_Vector_base.4" }
%"struct.std::_Vector_base.4" = type { %"struct.std::_Vector_base<rocksdb::Configurable::RegisteredOptions, std::allocator<rocksdb::Configurable::RegisteredOptions>>::_Vector_impl" }
%"struct.std::_Vector_base<rocksdb::Configurable::RegisteredOptions, std::allocator<rocksdb::Configurable::RegisteredOptions>>::_Vector_impl" = type { %"struct.std::_Vector_base<rocksdb::Configurable::RegisteredOptions, std::allocator<rocksdb::Configurable::RegisteredOptions>>::_Vector_impl_data" }
%"struct.std::_Vector_base<rocksdb::Configurable::RegisteredOptions, std::allocator<rocksdb::Configurable::RegisteredOptions>>::_Vector_impl_data" = type { ptr, ptr, ptr }
%"class.std::unique_ptr" = type { %"struct.std::__uniq_ptr_data" }
%"struct.std::__uniq_ptr_data" = type { %"class.std::__uniq_ptr_impl" }
%"class.std::__uniq_ptr_impl" = type { %"class.std::tuple" }
%"class.std::tuple" = type { %"struct.std::_Tuple_impl" }
%"struct.std::_Tuple_impl" = type { %"struct.std::_Head_base.9" }
%"struct.std::_Head_base.9" = type { ptr }
%"struct.rocksdb::blob_db::BlobCompactionContext" = type { ptr, i64, %"class.std::unordered_set", i64, i64 }
%"class.std::unordered_set" = type { %"class.std::_Hashtable" }
%"class.std::_Hashtable" = type { ptr, i64, %"struct.std::__detail::_Hash_node_base", i64, %"struct.std::__detail::_Prime_rehash_policy", ptr }
%"struct.std::__detail::_Hash_node_base" = type { ptr }
%"struct.std::__detail::_Prime_rehash_policy" = type { float, i64 }
%"class.std::shared_ptr.15" = type { %"class.std::__shared_ptr.16" }
%"class.std::__shared_ptr.16" = type { ptr, %"class.std::__shared_count" }
%"class.rocksdb::blob_db::BlobIndexCompactionFilterGC" = type { %"class.rocksdb::blob_db::BlobIndexCompactionFilterBase", %"struct.rocksdb::blob_db::BlobCompactionContextGC", %"class.rocksdb::blob_db::BlobDBGarbageCollectionStats" }
%"struct.rocksdb::blob_db::BlobCompactionContextGC" = type { i64 }
%"class.rocksdb::blob_db::BlobDBGarbageCollectionStats" = type <{ i64, i64, i64, i64, i64, i8, [7 x i8] }>

; Function Attrs: mustprogress nounwind uwtable
define linkonce_odr noundef zeroext i1 @_ZNKSt12__shared_ptrIN7rocksdb7blob_db8BlobFileELN9__gnu_cxx12_Lock_policyE2EEcvbEv(ptr noundef nonnull align 8 dereferenceable(16) %0) #3 comdat align 2 {
  %2 = alloca ptr, align 8
  store ptr %0, ptr %2, align 8, !tbaa !52
  %3 = load ptr, ptr %2, align 8
  %4 = getelementptr inbounds nuw %"class.std::__shared_ptr", ptr %3, i32 0, i32 0
  %5 = load ptr, ptr %4, align 8, !tbaa !54
  %6 = icmp ne ptr %5, null
  ret i1 %6
}

; Function Attrs: mustprogress nounwind uwtable
define linkonce_odr void @_ZN7rocksdb7blob_db28BlobDBGarbageCollectionStats10AddNewFileEv(ptr noundef nonnull align 8 dereferenceable(41) %0) #3 comdat align 2 {
  %2 = alloca ptr, align 8
  store ptr %0, ptr %2, align 8, !tbaa !323
  %3 = load ptr, ptr %2, align 8
  %4 = getelementptr inbounds nuw %"class.rocksdb::blob_db::BlobDBGarbageCollectionStats", ptr %3, i32 0, i32 4
  %5 = load i64, ptr %4, align 8, !tbaa !331
  %6 = add i64 %5, 1
  store i64 %6, ptr %4, align 8, !tbaa !331
  ret void
}

; Function Attrs: mustprogress nounwind uwtable
define noundef zeroext i1 @_ZNK7rocksdb7blob_db29BlobIndexCompactionFilterBase16IsBlobFileOpenedEv(ptr noundef nonnull align 8 dereferenceable(216) %0) #3 align 2 {
  %2 = alloca i1, align 1
  %3 = alloca ptr, align 8
  store ptr %0, ptr %3, align 8, !tbaa !59
  %4 = load ptr, ptr %3, align 8
  %5 = getelementptr inbounds nuw %"class.rocksdb::blob_db::BlobIndexCompactionFilterBase", ptr %4, i32 0, i32 4
  %6 = call noundef zeroext i1 @_ZNKSt12__shared_ptrIN7rocksdb7blob_db8BlobFileELN9__gnu_cxx12_Lock_policyE2EEcvbEv(ptr noundef nonnull align 8 dereferenceable(16) %5) #4
  br i1 %6, label %7, label %8

7:                                                ; preds = %1
  store i1 true, ptr %2, align 1
  br label %9

8:                                                ; preds = %1
  store i1 false, ptr %2, align 1
  br label %9

9:                                                ; preds = %8, %7
  %10 = load i1, ptr %2, align 1
  ret i1 %10
}

; Function Attrs: mustprogress uwtable
define noundef zeroext i1 @_ZNK7rocksdb7blob_db27BlobIndexCompactionFilterGC23OpenNewBlobFileIfNeededEv(ptr noundef nonnull align 8 dereferenceable(272) %0) unnamed_addr #5 align 2 {
  %2 = alloca i1, align 1
  %3 = alloca ptr, align 8
  %4 = alloca i8, align 1
  store ptr %0, ptr %3, align 8, !tbaa !320
  %5 = load ptr, ptr %3, align 8
  %6 = call noundef zeroext i1 @_ZNK7rocksdb7blob_db29BlobIndexCompactionFilterBase16IsBlobFileOpenedEv(ptr noundef nonnull align 8 dereferenceable(216) %5)
  br i1 %6, label %7, label %8

7:                                                ; preds = %1
  store i1 true, ptr %2, align 1
  br label %18

8:                                                ; preds = %1
  call void @llvm.lifetime.start.p0(i64 1, ptr %4) #4
  %9 = call noundef zeroext i1 @_ZNK7rocksdb7blob_db29BlobIndexCompactionFilterBase23OpenNewBlobFileIfNeededEv(ptr noundef nonnull align 8 dereferenceable(216) %5)
  %10 = zext i1 %9 to i8
  store i8 %10, ptr %4, align 1, !tbaa !284
  %11 = load i8, ptr %4, align 1, !tbaa !284, !range !279, !noundef !280
  %12 = trunc i8 %11 to i1
  br i1 %12, label %13, label %15

13:                                               ; preds = %8
  %14 = getelementptr inbounds nuw %"class.rocksdb::blob_db::BlobIndexCompactionFilterGC", ptr %5, i32 0, i32 2
  call void @_ZN7rocksdb7blob_db28BlobDBGarbageCollectionStats10AddNewFileEv(ptr noundef nonnull align 8 dereferenceable(41) %14)
  br label %15

15:                                               ; preds = %13, %8
  %16 = load i8, ptr %4, align 1, !tbaa !284, !range !279, !noundef !280
  %17 = trunc i8 %16 to i1
  store i1 %17, ptr %2, align 1
  call void @llvm.lifetime.end.p0(i64 1, ptr %4) #4
  br label %18

18:                                               ; preds = %15, %7
  %19 = load i1, ptr %2, align 1
  ret i1 %19
}