; Function Attrs: mustprogress uwtable
define noundef zeroext i1 @_ZNK7rocksdb7blob_db27BlobIndexCompactionFilterGC23OpenNewBlobFileIfNeededEv(ptr noundef nonnull align 8 dereferenceable(272) %0) unnamed_addr #4 align 2 {
  %2 = getelementptr inbounds nuw i8, ptr %0, i64 152
  %3 = load ptr, ptr %2, align 8, !tbaa !64
  %.not = icmp eq ptr %3, null
  br i1 %.not, label %4, label %10

4:                                                ; preds = %1
  %5 = tail call noundef zeroext i1 @_ZNK7rocksdb7blob_db29BlobIndexCompactionFilterBase23OpenNewBlobFileIfNeededEv(ptr noundef nonnull align 8 dereferenceable(216) %0)
  br i1 %5, label %6, label %10

6:                                                ; preds = %4
  %7 = getelementptr inbounds nuw i8, ptr %0, i64 256
  %8 = load i64, ptr %7, align 8, !tbaa !346
  %9 = add i64 %8, 1
  store i64 %9, ptr %7, align 8, !tbaa !346
  br label %10

10:                                               ; preds = %4, %6, %1
  %.0 = phi i1 [ true, %1 ], [ true, %6 ], [ false, %4 ]
  ret i1 %.0
}